Certificate:
    Data:
        Version: 3 (0x2)
        Serial Number: 8 (0x8)
    Signature Algorithm: sha256WithRSAEncryption
        Issuer: C=BR, ST=RJ, L=Rio, O=PUC, OU=INF1416, CN=AC INF1416/emailAddress=ca@grad.inf.puc-rio.br
        Validity
            Not Before: Apr 29 14:03:08 2022 GMT
            Not After : Apr 28 14:03:08 2025 GMT
        Subject: C=BR, ST=RJ, O=PUC, OU=INF1416, CN=Usuario 02/emailAddress=user02@inf1416.puc-rio.br
        Subject Public Key Info:
            Public Key Algorithm: rsaEncryption
                Public-Key: (2048 bit)
                Modulus:
                    00:b4:25:03:5e:8d:84:ea:f1:36:67:1b:d0:b9:7f:
                    3a:01:97:c0:03:bb:70:44:bb:c9:06:33:fd:ac:63:
                    89:47:65:a5:ac:be:8f:15:cf:44:d6:a3:35:f2:6e:
                    f2:49:d0:16:9f:98:20:6f:bd:cb:2c:bf:94:40:94:
                    66:51:e0:8a:c5:62:0a:e6:cb:b6:95:6e:b3:43:e4:
                    59:20:11:6b:0e:3c:94:17:2f:f0:91:c5:df:4b:e2:
                    a0:b6:a2:e7:de:7f:6d:3b:b0:2c:64:65:3b:30:1c:
                    f2:5c:11:7e:4a:06:30:c1:ab:9e:11:5b:5d:0e:d2:
                    89:e5:3f:bd:93:03:e1:e5:6d:7c:19:57:f4:6c:f6:
                    bf:d6:7f:65:28:12:50:02:83:a9:ae:79:81:d3:d0:
                    ce:e1:45:d8:87:57:92:c3:94:db:4c:32:23:da:43:
                    5f:fc:5a:5e:c0:4b:7e:f7:2f:cd:c7:ab:d8:a6:a4:
                    4d:a3:ef:17:52:13:ce:a7:38:8f:f5:c8:ac:1a:e1:
                    ff:72:f5:65:c2:b8:e3:3c:7f:7e:b0:16:73:27:cb:
                    29:3e:a7:0f:bd:1e:a8:06:ab:2e:03:d2:46:5d:08:
                    cf:af:53:0c:d2:e7:05:87:66:15:23:76:c6:76:76:
                    d4:42:ab:0c:22:f4:3b:cc:91:ac:63:a7:c4:a7:65:
                    29:d9
                Exponent: 65537 (0x10001)
        X509v3 extensions:
            X509v3 Basic Constraints: 
                CA:FALSE
            Netscape Comment: 
                OpenSSL Generated Certificate
            X509v3 Subject Key Identifier: 
                C3:26:DF:A1:E4:BF:8D:67:AA:FC:14:74:94:90:DE:73:CF:6F:09:B8
            X509v3 Authority Key Identifier: 
                keyid:23:81:3B:C3:19:2B:95:99:D9:CA:EA:3B:6B:FE:1C:24:73:C2:82:8E

    Signature Algorithm: sha256WithRSAEncryption
         24:58:87:6e:69:ec:3c:01:58:52:b9:67:48:7f:54:45:4c:0d:
         85:45:90:0c:62:c9:1b:eb:dd:12:91:80:1b:08:2f:8a:48:d8:
         a1:89:a9:52:d2:c8:db:c6:aa:da:d9:ef:bb:15:93:0c:9c:bd:
         7e:7d:30:56:2b:2b:7a:f6:3d:be:c7:29:b6:e4:ef:5e:a5:69:
         26:b2:fc:ba:dc:f2:53:e0:1b:a6:3f:82:c2:73:b1:03:24:cc:
         9f:5b:7b:53:db:da:ed:16:03:12:fc:06:84:9a:62:22:bc:4c:
         8d:d1:cc:a8:76:77:89:2a:c3:44:93:4f:1c:9b:83:05:ec:48:
         2c:66:9d:93:a6:a0:7c:55:b9:b6:bd:97:d5:1d:89:8f:9e:92:
         a2:db:d9:0b:03:0d:6b:e1:06:ff:ba:97:f4:f2:59:35:f9:d4:
         37:19:5a:c1:b1:a4:4d:e3:93:7e:8e:f6:e8:6d:1e:28:ab:ae:
         2c:6c:0e:30:02:35:b4:5f:6c:16:4f:d1:c7:23:65:8a:f2:4c:
         66:b7:3a:03:76:61:50:3e:3e:d0:34:e4:01:67:9a:20:26:c3:
         0b:f7:f4:e2:3b:6b:dc:48:07:9e:65:f2:cf:0b:bb:d2:ee:d0:
         9c:e5:09:1b:f3:4c:02:57:42:e3:04:0b:c5:f9:ed:2d:35:81:
         7b:d1:bb:0f
-----BEGIN CERTIFICATE-----
MIID9DCCAtygAwIBAgIBCDANBgkqhkiG9w0BAQsFADCBhDELMAkGA1UEBhMCQlIx
CzAJBgNVBAgMAlJKMQwwCgYDVQQHDANSaW8xDDAKBgNVBAoMA1BVQzEQMA4GA1UE
CwwHSU5GMTQxNjETMBEGA1UEAwwKQUMgSU5GMTQxNjElMCMGCSqGSIb3DQEJARYW
Y2FAZ3JhZC5pbmYucHVjLXJpby5icjAeFw0yMjA0MjkxNDAzMDhaFw0yNTA0Mjgx
NDAzMDhaMHkxCzAJBgNVBAYTAkJSMQswCQYDVQQIDAJSSjEMMAoGA1UECgwDUFVD
MRAwDgYDVQQLDAdJTkYxNDE2MRMwEQYDVQQDDApVc3VhcmlvIDAyMSgwJgYJKoZI
hvcNAQkBFhl1c2VyMDJAaW5mMTQxNi5wdWMtcmlvLmJyMIIBIjANBgkqhkiG9w0B
AQEFAAOCAQ8AMIIBCgKCAQEAtCUDXo2E6vE2ZxvQuX86AZfAA7twRLvJBjP9rGOJ
R2WlrL6PFc9E1qM18m7ySdAWn5ggb73LLL+UQJRmUeCKxWIK5su2lW6zQ+RZIBFr
DjyUFy/wkcXfS+KgtqLn3n9tO7AsZGU7MBzyXBF+SgYwwaueEVtdDtKJ5T+9kwPh
5W18GVf0bPa/1n9lKBJQAoOprnmB09DO4UXYh1eSw5TbTDIj2kNf/FpewEt+9y/N
x6vYpqRNo+8XUhPOpziP9cisGuH/cvVlwrjjPH9+sBZzJ8spPqcPvR6oBqsuA9JG
XQjPr1MM0ucFh2YVI3bGdnbUQqsMIvQ7zJGsY6fEp2Up2QIDAQABo3sweTAJBgNV
HRMEAjAAMCwGCWCGSAGG+EIBDQQfFh1PcGVuU1NMIEdlbmVyYXRlZCBDZXJ0aWZp
Y2F0ZTAdBgNVHQ4EFgQUwybfoeS/jWeq/BR0lJDec89vCbgwHwYDVR0jBBgwFoAU
I4E7wxkrlZnZyuo7a/4cJHPCgo4wDQYJKoZIhvcNAQELBQADggEBACRYh25p7DwB
WFK5Z0h/VEVMDYVFkAxiyRvr3RKRgBsIL4pI2KGJqVLSyNvGqtrZ77sVkwycvX59
MFYrK3r2Pb7HKbbk716laSay/Lrc8lPgG6Y/gsJzsQMkzJ9be1Pb2u0WAxL8BoSa
YiK8TI3RzKh2d4kqw0STTxybgwXsSCxmnZOmoHxVuba9l9UdiY+ekqLb2QsDDWvh
Bv+6l/TyWTX51DcZWsGxpE3jk36O9uhtHiirrixsDjACNbRfbBZP0ccjZYryTGa3
OgN2YVA+PtA05AFnmiAmwwv39OI7a9xIB55l8s8Lu9Lu0JzlCRvzTAJXQuMEC8X5
7S01gXvRuw8=
-----END CERTIFICATE-----
